target datalayout = "e-m:e-p270:32:32-p271:32:32-p272:64:64-i64:64-i128:128-f80:128-n8:16:32:64-S128"
target triple = "x86_64-pc-linux-gnu"

%struct.external_diff = type { ptr, i8 }
%struct.userdiff_funcname = type { ptr, ptr, i32 }
%struct.userdiff_driver = type { ptr, %struct.external_diff, ptr, ptr, i32, %struct.userdiff_funcname, ptr, ptr, ptr, ptr, ptr, ptr, i32 }
%struct.find_by_namelen_data = type { ptr, i64, ptr }
%struct.re_pattern_buffer = type { ptr, i64, i64, i64, ptr, ptr, i64, i8 }
%struct.regmatch_t = type { i32, i32 }

@ndrivers = internal global i32 0, align 4
@drivers = internal global ptr null, align 8
@regexec_supports_multi_byte_chars.not_space = internal constant [13 x i8] c"[^[:space:]]\00", align 1
@regexec_supports_multi_byte_chars.utf8_multi_byte_char = internal constant [3 x i8] c"\C2\A3\00", align 1
@regexec_supports_multi_byte_chars.result = internal global i32 -1, align 4
@.str.13 = private unnamed_addr constant [11 x i8] c"userdiff.c\00", align 1
@.str.14 = private unnamed_addr constant [31 x i8] c"invalid regular expression: %s\00", align 1

; Function Attrs: nounwind uwtable
define internal i32 @for_each_userdiff_driver_list(ptr noundef %0, i32 noundef %1, ptr noundef %2, ptr noundef %3, i32 noundef %4) #0 {
  %6 = alloca i32, align 4
  %7 = alloca ptr, align 8
  %8 = alloca i32, align 4
  %9 = alloca ptr, align 8
  %10 = alloca ptr, align 8
  %11 = alloca i32, align 4
  %12 = alloca i32, align 4
  %13 = alloca i32, align 4
  %14 = alloca ptr, align 8
  %15 = alloca i32, align 4
  store ptr %0, ptr %7, align 8, !tbaa !62
  store i32 %1, ptr %8, align 4, !tbaa !13
  store ptr %2, ptr %9, align 8, !tbaa !62
  store ptr %3, ptr %10, align 8, !tbaa !11
  store i32 %4, ptr %11, align 4, !tbaa !13
  call void @llvm.lifetime.start.p0(i64 4, ptr %12) #9
  call void @llvm.lifetime.start.p0(i64 4, ptr %13) #9
  store i32 0, ptr %12, align 4, !tbaa !13
  br label %16

16:                                               ; preds = %37, %5
  %17 = load i32, ptr %12, align 4, !tbaa !13
  %18 = load i32, ptr %11, align 4, !tbaa !13
  %19 = icmp slt i32 %17, %18
  br i1 %19, label %20, label %40

20:                                               ; preds = %16
  call void @llvm.lifetime.start.p0(i64 8, ptr %14) #9
  %21 = load ptr, ptr %10, align 8, !tbaa !11
  %22 = load i32, ptr %12, align 4, !tbaa !13
  %23 = sext i32 %22 to i64
  %24 = getelementptr inbounds %struct.userdiff_driver, ptr %21, i64 %23
  store ptr %24, ptr %14, align 8, !tbaa !11
  %25 = load ptr, ptr %7, align 8, !tbaa !62
  %26 = load ptr, ptr %14, align 8, !tbaa !11
  %27 = load i32, ptr %8, align 4, !tbaa !13
  %28 = load ptr, ptr %9, align 8, !tbaa !62
  %29 = call i32 %25(ptr noundef %26, i32 noundef %27, ptr noundef %28)
  store i32 %29, ptr %13, align 4, !tbaa !13
  %30 = icmp ne i32 %29, 0
  br i1 %30, label %31, label %33

31:                                               ; preds = %20
  %32 = load i32, ptr %13, align 4, !tbaa !13
  store i32 %32, ptr %6, align 4
  store i32 1, ptr %15, align 4
  br label %34

33:                                               ; preds = %20
  store i32 0, ptr %15, align 4
  br label %34

34:                                               ; preds = %33, %31
  call void @llvm.lifetime.end.p0(i64 8, ptr %14) #9
  %35 = load i32, ptr %15, align 4
  switch i32 %35, label %41 [
    i32 0, label %36
  ]

36:                                               ; preds = %34
  br label %37

37:                                               ; preds = %36
  %38 = load i32, ptr %12, align 4, !tbaa !13
  %39 = add nsw i32 %38, 1
  store i32 %39, ptr %12, align 4, !tbaa !13
  br label %16, !llvm.loop !63

40:                                               ; preds = %16
  store i32 0, ptr %6, align 4
  store i32 1, ptr %15, align 4
  br label %41

41:                                               ; preds = %40, %34
  call void @llvm.lifetime.end.p0(i64 4, ptr %13) #9
  call void @llvm.lifetime.end.p0(i64 4, ptr %12) #9
  %42 = load i32, ptr %6, align 4
  ret i32 %42
}

; Function Attrs: nounwind uwtable
define dso_local i32 @for_each_userdiff_driver(ptr noundef %0, ptr noundef %1) #0 {
  %3 = alloca i32, align 4
  %4 = alloca ptr, align 8
  %5 = alloca ptr, align 8
  %6 = alloca i32, align 4
  %7 = alloca i32, align 4
  store ptr %0, ptr %4, align 8, !tbaa !62
  store ptr %1, ptr %5, align 8, !tbaa !62
  call void @llvm.lifetime.start.p0(i64 4, ptr %6) #9
  %8 = load ptr, ptr %4, align 8, !tbaa !62
  %9 = load ptr, ptr %5, align 8, !tbaa !62
  %10 = load ptr, ptr @drivers, align 8, !tbaa !11
  %11 = load i32, ptr @ndrivers, align 4, !tbaa !13
  %12 = call i32 @for_each_userdiff_driver_list(ptr noundef %8, i32 noundef 2, ptr noundef %9, ptr noundef %10, i32 noundef %11)
  store i32 %12, ptr %6, align 4, !tbaa !13
  %13 = load i32, ptr %6, align 4, !tbaa !13
  %14 = icmp ne i32 %13, 0
  br i1 %14, label %15, label %17

15:                                               ; preds = %2
  %16 = load i32, ptr %6, align 4, !tbaa !13
  store i32 %16, ptr %3, align 4
  store i32 1, ptr %7, align 4
  br label %26

17:                                               ; preds = %2
  %18 = load ptr, ptr %4, align 8, !tbaa !62
  %19 = load ptr, ptr %5, align 8, !tbaa !62
  %20 = call i32 @for_each_userdiff_driver_list(ptr noundef %18, i32 noundef 1, ptr noundef %19, ptr noundef @builtin_drivers, i32 noundef 26)
  store i32 %20, ptr %6, align 4, !tbaa !13
  %21 = load i32, ptr %6, align 4, !tbaa !13
  %22 = icmp ne i32 %21, 0
  br i1 %22, label %23, label %25

23:                                               ; preds = %17
  %24 = load i32, ptr %6, align 4, !tbaa !13
  store i32 %24, ptr %3, align 4
  store i32 1, ptr %7, align 4
  br label %26

25:                                               ; preds = %17
  store i32 0, ptr %3, align 4
  store i32 1, ptr %7, align 4
  br label %26

26:                                               ; preds = %25, %23, %15
  call void @llvm.lifetime.end.p0(i64 4, ptr %6) #9
  %27 = load i32, ptr %3, align 4
  ret i32 %27
}

; Function Attrs: nounwind uwtable
define internal i32 @regexec_supports_multi_byte_chars() #0 {
  %1 = alloca i32, align 4
  %2 = alloca %struct.re_pattern_buffer, align 8
  %3 = alloca %struct.regmatch_t, align 4
  %4 = alloca i32, align 4
  call void @llvm.lifetime.start.p0(i64 64, ptr %2) #9
  call void @llvm.lifetime.start.p0(i64 8, ptr %3) #9
  %5 = load i32, ptr @regexec_supports_multi_byte_chars.result, align 4, !tbaa !13
  %6 = icmp ne i32 %5, -1
  br i1 %6, label %7, label %9

7:                                                ; preds = %0
  %8 = load i32, ptr @regexec_supports_multi_byte_chars.result, align 4, !tbaa !13
  store i32 %8, ptr %1, align 4
  store i32 1, ptr %4, align 4
  br label %29

9:                                                ; preds = %0
  %10 = call i32 @regcomp(ptr noundef %2, ptr noundef @regexec_supports_multi_byte_chars.not_space, i32 noundef 1)
  %11 = icmp ne i32 %10, 0
  br i1 %11, label %12, label %13

12:                                               ; preds = %9
  call void (ptr, i32, ptr, ...) @BUG_fl(ptr noundef @.str.13, i32 noundef 384, ptr noundef @.str.14, ptr noundef @regexec_supports_multi_byte_chars.not_space) #11
  unreachable

13:                                               ; preds = %9
  %14 = call i32 @regexec(ptr noundef %2, ptr noundef @regexec_supports_multi_byte_chars.utf8_multi_byte_char, i64 noundef 1, ptr noundef %3, i32 noundef 0)
  %15 = icmp ne i32 %14, 0
  br i1 %15, label %25, label %16

16:                                               ; preds = %13
  %17 = getelementptr inbounds nuw %struct.regmatch_t, ptr %3, i32 0, i32 0
  %18 = load i32, ptr %17, align 4, !tbaa !40
  %19 = icmp eq i32 %18, 0
  br i1 %19, label %20, label %25

20:                                               ; preds = %16
  %21 = getelementptr inbounds nuw %struct.regmatch_t, ptr %3, i32 0, i32 1
  %22 = load i32, ptr %21, align 4, !tbaa !42
  %23 = sext i32 %22 to i64
  %24 = icmp eq i64 %23, 2
  br label %25

25:                                               ; preds = %20, %16, %13
  %26 = phi i1 [ false, %16 ], [ false, %13 ], [ %24, %20 ]
  %27 = zext i1 %26 to i32
  store i32 %27, ptr @regexec_supports_multi_byte_chars.result, align 4, !tbaa !13
  call void @regfree(ptr noundef %2)
  %28 = load i32, ptr @regexec_supports_multi_byte_chars.result, align 4, !tbaa !13
  store i32 %28, ptr %1, align 4
  store i32 1, ptr %4, align 4
  br label %29

29:                                               ; preds = %25, %7
  call void @llvm.lifetime.end.p0(i64 8, ptr %3) #9
  call void @llvm.lifetime.end.p0(i64 64, ptr %2) #9
  %30 = load i32, ptr %1, align 4
  ret i32 %30
}

; Function Attrs: nounwind uwtable
define internal ptr @userdiff_find_by_namelen(ptr noundef %0, i64 noundef %1) #0 {
  %3 = alloca ptr, align 8
  %4 = alloca i64, align 8
  %5 = alloca %struct.find_by_namelen_data, align 8
  store ptr %0, ptr %3, align 8, !tbaa !4
  store i64 %1, ptr %4, align 8, !tbaa !9
  call void @llvm.lifetime.start.p0(i64 24, ptr %5) #9
  %6 = getelementptr inbounds nuw %struct.find_by_namelen_data, ptr %5, i32 0, i32 0
  %7 = load ptr, ptr %3, align 8, !tbaa !4
  store ptr %7, ptr %6, align 8, !tbaa !28
  %8 = getelementptr inbounds nuw %struct.find_by_namelen_data, ptr %5, i32 0, i32 1
  %9 = load i64, ptr %4, align 8, !tbaa !9
  store i64 %9, ptr %8, align 8, !tbaa !30
  %10 = getelementptr inbounds nuw %struct.find_by_namelen_data, ptr %5, i32 0, i32 2
  store ptr null, ptr %10, align 8, !tbaa !31
  %11 = call i32 @for_each_userdiff_driver(ptr noundef @userdiff_find_by_namelen_cb, ptr noundef %5)
  %12 = getelementptr inbounds nuw %struct.find_by_namelen_data, ptr %5, i32 0, i32 2
  %13 = load ptr, ptr %12, align 8, !tbaa !31
  call void @llvm.lifetime.end.p0(i64 24, ptr %5) #9
  ret ptr %13
}

; Function Attrs: nounwind uwtable
define dso_local ptr @userdiff_find_by_name(ptr noundef %0) #0 {
  %2 = alloca ptr, align 8
  %3 = alloca i32, align 4
  %4 = alloca ptr, align 8
  store ptr %0, ptr %2, align 8, !tbaa !4
  call void @llvm.lifetime.start.p0(i64 4, ptr %3) #9
  %5 = load ptr, ptr %2, align 8, !tbaa !4
  %6 = call i64 @strlen(ptr noundef %5) #10
  %7 = trunc i64 %6 to i32
  store i32 %7, ptr %3, align 4, !tbaa !13
  call void @llvm.lifetime.start.p0(i64 8, ptr %4) #9
  %8 = load ptr, ptr %2, align 8, !tbaa !4
  %9 = load i32, ptr %3, align 4, !tbaa !13
  %10 = sext i32 %9 to i64
  %11 = call ptr @userdiff_find_by_namelen(ptr noundef %8, i64 noundef %10)
  store ptr %11, ptr %4, align 8, !tbaa !11
  %12 = load ptr, ptr %4, align 8, !tbaa !11
  %13 = icmp ne ptr %12, null
  br i1 %13, label %14, label %31

14:                                               ; preds = %1
  %15 = load ptr, ptr %4, align 8, !tbaa !11
  %16 = getelementptr inbounds nuw %struct.userdiff_driver, ptr %15, i32 0, i32 8
  %17 = load ptr, ptr %16, align 8, !tbaa !39
  %18 = icmp ne ptr %17, null
  br i1 %18, label %19, label %31

19:                                               ; preds = %14
  %20 = call i32 @regexec_supports_multi_byte_chars()
  %21 = icmp ne i32 %20, 0
  br i1 %21, label %22, label %28

22:                                               ; preds = %19
  %23 = load ptr, ptr %4, align 8, !tbaa !11
  %24 = getelementptr inbounds nuw %struct.userdiff_driver, ptr %23, i32 0, i32 8
  %25 = load ptr, ptr %24, align 8, !tbaa !39
  %26 = load ptr, ptr %4, align 8, !tbaa !11
  %27 = getelementptr inbounds nuw %struct.userdiff_driver, ptr %26, i32 0, i32 6
  store ptr %25, ptr %27, align 8, !tbaa !25
  br label %28

28:                                               ; preds = %22, %19
  %29 = load ptr, ptr %4, align 8, !tbaa !11
  %30 = getelementptr inbounds nuw %struct.userdiff_driver, ptr %29, i32 0, i32 8
  store ptr null, ptr %30, align 8, !tbaa !39
  br label %31

31:                                               ; preds = %28, %14, %1
  %32 = load ptr, ptr %4, align 8, !tbaa !11
  call void @llvm.lifetime.end.p0(i64 8, ptr %4) #9
  call void @llvm.lifetime.end.p0(i64 4, ptr %3) #9
  ret ptr %32
}