; Function Attrs: nounwind uwtable
define dso_local noundef ptr @userdiff_find_by_name(ptr noundef %0) local_unnamed_addr #0 {
  %2 = alloca %struct.re_pattern_buffer, align 8
  %3 = alloca %struct.regmatch_t, align 4
  %4 = tail call i64 @strlen(ptr noundef nonnull dereferenceable(1) %0) #11
  %sext = shl i64 %4, 32
  %5 = ashr exact i64 %sext, 32
  %6 = load ptr, ptr @drivers, align 8, !tbaa !8
  %7 = load i32, ptr @ndrivers, align 4, !tbaa !11
  %8 = icmp sgt i32 %7, 0
  br i1 %8, label %.lr.ph.preheader.i.i.i, label %.lr.ph.i12.i.i.preheader

.lr.ph.i12.i.i.preheader:                         ; preds = %9, %1
  br label %.lr.ph.i12.i.i

.lr.ph.preheader.i.i.i:                           ; preds = %1
  %wide.trip.count.i.i.i = zext nneg i32 %7 to i64
  br label %.lr.ph.i.i.i

9:                                                ; preds = %.lr.ph.i.i.i
  %indvars.iv.next.i.i.i = add nuw nsw i64 %indvars.iv.i.i.i, 1
  %exitcond.not.i.i.i = icmp eq i64 %indvars.iv.next.i.i.i, %wide.trip.count.i.i.i
  br i1 %exitcond.not.i.i.i, label %.lr.ph.i12.i.i.preheader, label %.lr.ph.i.i.i, !llvm.loop !13

.lr.ph.i.i.i:                                     ; preds = %9, %.lr.ph.preheader.i.i.i
  %indvars.iv.i.i.i = phi i64 [ 0, %.lr.ph.preheader.i.i.i ], [ %indvars.iv.next.i.i.i, %9 ]
  %10 = getelementptr inbounds nuw %struct.userdiff_driver, ptr %6, i64 %indvars.iv.i.i.i
  %11 = load ptr, ptr %10, align 8, !tbaa !15
  %12 = tail call i32 @xstrncmpz(ptr noundef %11, ptr noundef nonnull %0, i64 noundef %5) #9
  %.not.i2.i = icmp eq i32 %12, 0
  br i1 %.not.i2.i, label %.loopexit, label %9

.lr.ph.i12.i.i:                                   ; preds = %.lr.ph.i12.i.i.preheader, %userdiff_find_by_namelen_cb.exit.i
  %indvars.iv.i13.i.i = phi i64 [ %indvars.iv.next.i16.i.i, %userdiff_find_by_namelen_cb.exit.i ], [ 0, %.lr.ph.i12.i.i.preheader ]
  %13 = getelementptr inbounds nuw %struct.userdiff_driver, ptr @builtin_drivers, i64 %indvars.iv.i13.i.i
  %14 = load ptr, ptr %13, align 16, !tbaa !15
  %15 = tail call i32 @xstrncmpz(ptr noundef %14, ptr noundef nonnull %0, i64 noundef %5) #9
  %.not.i.i = icmp eq i32 %15, 0
  br i1 %.not.i.i, label %.loopexit, label %userdiff_find_by_namelen_cb.exit.i

userdiff_find_by_namelen_cb.exit.i:               ; preds = %.lr.ph.i12.i.i
  %indvars.iv.next.i16.i.i = add nuw nsw i64 %indvars.iv.i13.i.i, 1
  %exitcond.not.i17.i.i = icmp eq i64 %indvars.iv.next.i16.i.i, 26
  br i1 %exitcond.not.i17.i.i, label %userdiff_find_by_namelen.exit, label %.lr.ph.i12.i.i, !llvm.loop !13

.loopexit:                                        ; preds = %.lr.ph.i.i.i, %.lr.ph.i12.i.i
  %.sroa.8.3.i.ph = phi ptr [ %13, %.lr.ph.i12.i.i ], [ %10, %.lr.ph.i.i.i ]
  %16 = getelementptr inbounds nuw i8, ptr %.sroa.8.3.i.ph, i64 88
  %17 = load ptr, ptr %16, align 8, !tbaa !33
  %.not8 = icmp eq ptr %17, null
  br i1 %.not8, label %userdiff_find_by_namelen.exit, label %18

18:                                               ; preds = %.loopexit
  call void @llvm.lifetime.start.p0(i64 64, ptr nonnull %2) #9
  call void @llvm.lifetime.start.p0(i64 8, ptr nonnull %3) #9
  %19 = load i32, ptr @regexec_supports_multi_byte_chars.result, align 4, !tbaa !11
  %.not.i = icmp eq i32 %19, -1
  br i1 %.not.i, label %20, label %regexec_supports_multi_byte_chars.exit

20:                                               ; preds = %18
  %21 = call i32 @regcomp(ptr noundef nonnull %2, ptr noundef nonnull @regexec_supports_multi_byte_chars.not_space, i32 noundef 1) #9
  %.not4.i = icmp eq i32 %21, 0
  br i1 %.not4.i, label %23, label %22

22:                                               ; preds = %20
  call void (ptr, i32, ptr, ...) @BUG_fl(ptr noundef nonnull @.str.13, i32 noundef 384, ptr noundef nonnull @.str.14, ptr noundef nonnull @regexec_supports_multi_byte_chars.not_space) #10
  unreachable

23:                                               ; preds = %20
  %24 = call i32 @regexec(ptr noundef nonnull %2, ptr noundef nonnull @regexec_supports_multi_byte_chars.utf8_multi_byte_char, i64 noundef 1, ptr noundef nonnull %3, i32 noundef 0) #9
  %25 = icmp eq i32 %24, 0
  %26 = load i32, ptr %3, align 4
  %27 = icmp eq i32 %26, 0
  %or.cond.i = select i1 %25, i1 %27, i1 false
  %28 = getelementptr inbounds nuw i8, ptr %3, i64 4
  %29 = load i32, ptr %28, align 4
  %30 = icmp eq i32 %29, 2
  %narrow.i = select i1 %or.cond.i, i1 %30, i1 false
  %31 = zext i1 %narrow.i to i32
  store i32 %31, ptr @regexec_supports_multi_byte_chars.result, align 4, !tbaa !11
  call void @regfree(ptr noundef nonnull %2) #9
  %32 = load i32, ptr @regexec_supports_multi_byte_chars.result, align 4, !tbaa !11
  br label %regexec_supports_multi_byte_chars.exit

regexec_supports_multi_byte_chars.exit:           ; preds = %18, %23
  %.0.i = phi i32 [ %32, %23 ], [ %19, %18 ]
  call void @llvm.lifetime.end.p0(i64 8, ptr nonnull %3) #9
  call void @llvm.lifetime.end.p0(i64 64, ptr nonnull %2) #9
  %.not9 = icmp eq i32 %.0.i, 0
  br i1 %.not9, label %36, label %33

33:                                               ; preds = %regexec_supports_multi_byte_chars.exit
  %34 = load ptr, ptr %16, align 8, !tbaa !33
  %35 = getelementptr inbounds nuw i8, ptr %.sroa.8.3.i.ph, i64 72
  store ptr %34, ptr %35, align 8, !tbaa !30
  br label %36

36:                                               ; preds = %33, %regexec_supports_multi_byte_chars.exit
  store ptr null, ptr %16, align 8, !tbaa !33
  br label %userdiff_find_by_namelen.exit

userdiff_find_by_namelen.exit:                    ; preds = %userdiff_find_by_namelen_cb.exit.i, %36, %.loopexit
  %.sroa.8.3.i13 = phi ptr [ %.sroa.8.3.i.ph, %36 ], [ %.sroa.8.3.i.ph, %.loopexit ], [ null, %userdiff_find_by_namelen_cb.exit.i ]
  ret ptr %.sroa.8.3.i13
}